; Function Attrs: mustprogress nounwind uwtable
define void @_ZN4pkpy11ManagedHeapD2Ev(ptr nocapture noundef nonnull readonly align 8 dereferenceable(84) %0) unnamed_addr #4 align 2 personality ptr @__gxx_personality_v0 {
  %2 = load ptr, ptr %0, align 8
  %3 = getelementptr inbounds i8, ptr %0, i64 8
  %4 = load ptr, ptr %3, align 8
  %.not19 = icmp eq ptr %2, %4
  br i1 %.not19, label %._crit_edge, label %.lr.ph

.lr.ph:                                           ; preds = %1, %.lr.ph
  %.sroa.015.020 = phi ptr [ %9, %.lr.ph ], [ %2, %1 ]
  %5 = load ptr, ptr %.sroa.015.020, align 8
  %6 = load ptr, ptr %5, align 8
  %7 = getelementptr inbounds i8, ptr %6, i64 8
  %8 = load ptr, ptr %7, align 8
  tail call void %8(ptr noundef nonnull align 8 dereferenceable(24) %5) #16
  tail call void @_ZN4pkpy14pool64_deallocEPv(ptr noundef nonnull %5) #16
  %9 = getelementptr inbounds i8, ptr %.sroa.015.020, i64 8
  %.not = icmp eq ptr %9, %4
  br i1 %.not, label %._crit_edge, label %.lr.ph

._crit_edge:                                      ; preds = %.lr.ph, %1
  %10 = getelementptr inbounds i8, ptr %0, i64 24
  %11 = load ptr, ptr %10, align 8
  %12 = getelementptr inbounds i8, ptr %0, i64 32
  %13 = load ptr, ptr %12, align 8
  %.not1821 = icmp eq ptr %11, %13
  br i1 %.not1821, label %._crit_edge25, label %.lr.ph24

.lr.ph24:                                         ; preds = %._crit_edge, %.lr.ph24
  %.sroa.011.022 = phi ptr [ %18, %.lr.ph24 ], [ %11, %._crit_edge ]
  %14 = load ptr, ptr %.sroa.011.022, align 8
  %15 = load ptr, ptr %14, align 8
  %16 = getelementptr inbounds i8, ptr %15, i64 8
  %17 = load ptr, ptr %16, align 8
  tail call void %17(ptr noundef nonnull align 8 dereferenceable(24) %14) #16
  tail call void @_ZN4pkpy14pool64_deallocEPv(ptr noundef nonnull %14) #16
  %18 = getelementptr inbounds i8, ptr %.sroa.011.022, i64 8
  %.not18 = icmp eq ptr %18, %13
  br i1 %.not18, label %._crit_edge25.loopexit, label %.lr.ph24

._crit_edge25.loopexit:                           ; preds = %.lr.ph24
  %.pre = load ptr, ptr %10, align 8
  br label %._crit_edge25

._crit_edge25:                                    ; preds = %._crit_edge25.loopexit, %._crit_edge
  %19 = phi ptr [ %.pre, %._crit_edge25.loopexit ], [ %11, %._crit_edge ]
  %.not.i.i.i = icmp eq ptr %19, null
  br i1 %.not.i.i.i, label %_ZNSt6vectorIPN4pkpy8PyObjectESaIS2_EED2Ev.exit, label %20

20:                                               ; preds = %._crit_edge25
  %21 = getelementptr inbounds i8, ptr %0, i64 40
  %22 = load ptr, ptr %21, align 8
  %23 = ptrtoint ptr %22 to i64
  %24 = ptrtoint ptr %19 to i64
  %25 = sub i64 %23, %24
  tail call void @_ZdlPvm(ptr noundef nonnull %19, i64 noundef %25) #15
  br label %_ZNSt6vectorIPN4pkpy8PyObjectESaIS2_EED2Ev.exit

_ZNSt6vectorIPN4pkpy8PyObjectESaIS2_EED2Ev.exit:  ; preds = %._crit_edge25, %20
  %26 = load ptr, ptr %0, align 8
  %.not.i.i.i9 = icmp eq ptr %26, null
  br i1 %.not.i.i.i9, label %_ZNSt6vectorIPN4pkpy8PyObjectESaIS2_EED2Ev.exit10, label %27

27:                                               ; preds = %_ZNSt6vectorIPN4pkpy8PyObjectESaIS2_EED2Ev.exit
  %28 = getelementptr inbounds i8, ptr %0, i64 16
  %29 = load ptr, ptr %28, align 8
  %30 = ptrtoint ptr %29 to i64
  %31 = ptrtoint ptr %26 to i64
  %32 = sub i64 %30, %31
  tail call void @_ZdlPvm(ptr noundef nonnull %26, i64 noundef %32) #15
  br label %_ZNSt6vectorIPN4pkpy8PyObjectESaIS2_EED2Ev.exit10

_ZNSt6vectorIPN4pkpy8PyObjectESaIS2_EED2Ev.exit10: ; preds = %_ZNSt6vectorIPN4pkpy8PyObjectESaIS2_EED2Ev.exit, %27
  ret void
}